
a.out:     file format elf64-x86-64


Disassembly of section .init:

0000000000001000 <_init>:
    1000:	f3 0f 1e fa          	endbr64 
    1004:	48 83 ec 08          	sub    rsp,0x8
    1008:	48 8b 05 d9 2f 00 00 	mov    rax,QWORD PTR [rip+0x2fd9]        # 3fe8 <__gmon_start__@Base>
    100f:	48 85 c0             	test   rax,rax
    1012:	74 02                	je     1016 <_init+0x16>
    1014:	ff d0                	call   rax
    1016:	48 83 c4 08          	add    rsp,0x8
    101a:	c3                   	ret    

Disassembly of section .plt:

0000000000001020 <.plt>:
    1020:	ff 35 9a 2f 00 00    	push   QWORD PTR [rip+0x2f9a]        # 3fc0 <_GLOBAL_OFFSET_TABLE_+0x8>
    1026:	f2 ff 25 9b 2f 00 00 	bnd jmp QWORD PTR [rip+0x2f9b]        # 3fc8 <_GLOBAL_OFFSET_TABLE_+0x10>
    102d:	0f 1f 00             	nop    DWORD PTR [rax]
    1030:	f3 0f 1e fa          	endbr64 
    1034:	68 00 00 00 00       	push   0x0
    1039:	f2 e9 e1 ff ff ff    	bnd jmp 1020 <_init+0x20>
    103f:	90                   	nop

Disassembly of section .plt.got:

0000000000001040 <__cxa_finalize@plt>:
    1040:	f3 0f 1e fa          	endbr64 
    1044:	f2 ff 25 ad 2f 00 00 	bnd jmp QWORD PTR [rip+0x2fad]        # 3ff8 <__cxa_finalize@GLIBC_2.2.5>
    104b:	0f 1f 44 00 00       	nop    DWORD PTR [rax+rax*1+0x0]

Disassembly of section .plt.sec:

0000000000001050 <__printf_chk@plt>:
    1050:	f3 0f 1e fa          	endbr64 
    1054:	f2 ff 25 75 2f 00 00 	bnd jmp QWORD PTR [rip+0x2f75]        # 3fd0 <__printf_chk@GLIBC_2.3.4>
    105b:	0f 1f 44 00 00       	nop    DWORD PTR [rax+rax*1+0x0]

Disassembly of section .text:

0000000000001060 <main>:
    unsigned int count;
    Node * first;
} List;

int main()
{
    1060:	f3 0f 1e fa          	endbr64 
    1064:	48 83 ec 08          	sub    rsp,0x8
}

__fortify_function int
printf (const char *__restrict __fmt, ...)
{
  return __printf_chk (__USE_FORTIFY_LEVEL - 1, __fmt, __va_arg_pack ());
    1068:	ba 02 00 00 00       	mov    edx,0x2
    106d:	bf 01 00 00 00       	mov    edi,0x1
    1072:	31 c0                	xor    eax,eax
    1074:	48 8d 35 89 0f 00 00 	lea    rsi,[rip+0xf89]        # 2004 <_IO_stdin_used+0x4>
    107b:	e8 d0 ff ff ff       	call   1050 <__printf_chk@plt>
    1080:	ba 05 00 00 00       	mov    edx,0x5
    1085:	48 8d 35 83 0f 00 00 	lea    rsi,[rip+0xf83]        # 200f <_IO_stdin_used+0xf>
    108c:	31 c0                	xor    eax,eax
    108e:	bf 01 00 00 00       	mov    edi,0x1
    1093:	e8 b8 ff ff ff       	call   1050 <__printf_chk@plt>
    1098:	ba 07 00 00 00       	mov    edx,0x7
    109d:	48 8d 35 72 0f 00 00 	lea    rsi,[rip+0xf72]        # 2016 <_IO_stdin_used+0x16>
    10a4:	31 c0                	xor    eax,eax
    10a6:	bf 01 00 00 00       	mov    edi,0x1
    10ab:	e8 a0 ff ff ff       	call   1050 <__printf_chk@plt>
    printf("list[%d]: ", list.count);
    printf("%d -> ", list.first->value);
    printf("%d\n", list.first->next->value);

    return 0;
    10b0:	31 c0                	xor    eax,eax
    10b2:	48 83 c4 08          	add    rsp,0x8
    10b6:	c3                   	ret    
    10b7:	66 0f 1f 84 00 00 00 	nop    WORD PTR [rax+rax*1+0x0]
    10be:	00 00 

00000000000010c0 <_start>:
    10c0:	f3 0f 1e fa          	endbr64 
    10c4:	31 ed                	xor    ebp,ebp
    10c6:	49 89 d1             	mov    r9,rdx
    10c9:	5e                   	pop    rsi
    10ca:	48 89 e2             	mov    rdx,rsp
    10cd:	48 83 e4 f0          	and    rsp,0xfffffffffffffff0
    10d1:	50                   	push   rax
    10d2:	54                   	push   rsp
    10d3:	45 31 c0             	xor    r8d,r8d
    10d6:	31 c9                	xor    ecx,ecx
    10d8:	48 8d 3d 81 ff ff ff 	lea    rdi,[rip+0xffffffffffffff81]        # 1060 <main>
    10df:	ff 15 f3 2e 00 00    	call   QWORD PTR [rip+0x2ef3]        # 3fd8 <__libc_start_main@GLIBC_2.34>
    10e5:	f4                   	hlt    
    10e6:	66 2e 0f 1f 84 00 00 	cs nop WORD PTR [rax+rax*1+0x0]
    10ed:	00 00 00 

00000000000010f0 <deregister_tm_clones>:
    10f0:	48 8d 3d 19 2f 00 00 	lea    rdi,[rip+0x2f19]        # 4010 <__TMC_END__>
    10f7:	48 8d 05 12 2f 00 00 	lea    rax,[rip+0x2f12]        # 4010 <__TMC_END__>
    10fe:	48 39 f8             	cmp    rax,rdi
    1101:	74 15                	je     1118 <deregister_tm_clones+0x28>
    1103:	48 8b 05 d6 2e 00 00 	mov    rax,QWORD PTR [rip+0x2ed6]        # 3fe0 <_ITM_deregisterTMCloneTable@Base>
    110a:	48 85 c0             	test   rax,rax
    110d:	74 09                	je     1118 <deregister_tm_clones+0x28>
    110f:	ff e0                	jmp    rax
    1111:	0f 1f 80 00 00 00 00 	nop    DWORD PTR [rax+0x0]
    1118:	c3                   	ret    
    1119:	0f 1f 80 00 00 00 00 	nop    DWORD PTR [rax+0x0]

0000000000001120 <register_tm_clones>:
    1120:	48 8d 3d e9 2e 00 00 	lea    rdi,[rip+0x2ee9]        # 4010 <__TMC_END__>
    1127:	48 8d 35 e2 2e 00 00 	lea    rsi,[rip+0x2ee2]        # 4010 <__TMC_END__>
    112e:	48 29 fe             	sub    rsi,rdi
    1131:	48 89 f0             	mov    rax,rsi
    1134:	48 c1 ee 3f          	shr    rsi,0x3f
    1138:	48 c1 f8 03          	sar    rax,0x3
    113c:	48 01 c6             	add    rsi,rax
    113f:	48 d1 fe             	sar    rsi,1
    1142:	74 14                	je     1158 <register_tm_clones+0x38>
    1144:	48 8b 05 a5 2e 00 00 	mov    rax,QWORD PTR [rip+0x2ea5]        # 3ff0 <_ITM_registerTMCloneTable@Base>
    114b:	48 85 c0             	test   rax,rax
    114e:	74 08                	je     1158 <register_tm_clones+0x38>
    1150:	ff e0                	jmp    rax
    1152:	66 0f 1f 44 00 00    	nop    WORD PTR [rax+rax*1+0x0]
    1158:	c3                   	ret    
    1159:	0f 1f 80 00 00 00 00 	nop    DWORD PTR [rax+0x0]

0000000000001160 <__do_global_dtors_aux>:
    1160:	f3 0f 1e fa          	endbr64 
    1164:	80 3d a5 2e 00 00 00 	cmp    BYTE PTR [rip+0x2ea5],0x0        # 4010 <__TMC_END__>
    116b:	75 2b                	jne    1198 <__do_global_dtors_aux+0x38>
    116d:	55                   	push   rbp
    116e:	48 83 3d 82 2e 00 00 	cmp    QWORD PTR [rip+0x2e82],0x0        # 3ff8 <__cxa_finalize@GLIBC_2.2.5>
    1175:	00 
    1176:	48 89 e5             	mov    rbp,rsp
    1179:	74 0c                	je     1187 <__do_global_dtors_aux+0x27>
    117b:	48 8b 3d 86 2e 00 00 	mov    rdi,QWORD PTR [rip+0x2e86]        # 4008 <__dso_handle>
    1182:	e8 b9 fe ff ff       	call   1040 <__cxa_finalize@plt>
    1187:	e8 64 ff ff ff       	call   10f0 <deregister_tm_clones>
    118c:	c6 05 7d 2e 00 00 01 	mov    BYTE PTR [rip+0x2e7d],0x1        # 4010 <__TMC_END__>
    1193:	5d                   	pop    rbp
    1194:	c3                   	ret    
    1195:	0f 1f 00             	nop    DWORD PTR [rax]
    1198:	c3                   	ret    
    1199:	0f 1f 80 00 00 00 00 	nop    DWORD PTR [rax+0x0]

00000000000011a0 <frame_dummy>:
    11a0:	f3 0f 1e fa          	endbr64 
    11a4:	e9 77 ff ff ff       	jmp    1120 <register_tm_clones>

Disassembly of section .fini:

00000000000011ac <_fini>:
    11ac:	f3 0f 1e fa          	endbr64 
    11b0:	48 83 ec 08          	sub    rsp,0x8
    11b4:	48 83 c4 08          	add    rsp,0x8
    11b8:	c3                   	ret    
